target datalayout = "e-m:e-p270:32:32-p271:32:32-p272:64:64-i64:64-i128:128-f80:128-n8:16:32:64-S128"
target triple = "x86_64-pc-linux-gnu"

@.str.2 = private unnamed_addr constant [30 x i8] c"../openssl/test/rsa_mp_test.c\00", align 1
@.str.19 = private unnamed_addr constant [92 x i8] c"RSA_set0_factors(key, BN_bin2bn(p, sizeof(p) - 1, NULL), BN_bin2bn(q, sizeof(q) - 1, NULL))\00", align 1
@.str.20 = private unnamed_addr constant [2 x i8] c"1\00", align 1
@p = internal constant [87 x i8] c"\06w\CD\D5F\9B\C1\D5X\00\81\E2\F3\0A6\B1n)\89\D5/1_\92\22;\9Bu0\82\FA\C5\F5\DE\8A6\DB\C6\E5\8F\EF\147\D6\00\F9\AB\90\9B]WL\F5\1Fw\C4\BB\8B\DD\9Bg\11E\B2d\E8\AC\A8\03\0F\16\0D]-S\07#\FBb\0D\E6\16\D3#\E8\B3\00", align 16
@q = internal constant [87 x i8] c"\06f\9ApS\D6rt\FD\EAE\C3\C0\17\AE\DEy\17\AEy\DE\FC\0E\F7\A4:\8CC\8F\C7\8A\A2,Q\C4\D0r\89s\\a\BE\FDT?\92e\DEMeqp\F6\F2\E5\98\B9\0F\D1\0B\E6\95\09Jz\DF\F3\10\16\D0`\FC\A5\104\977o\0A\D5]\8F\D4\C3\A0[\00", align 16
@.str.21 = private unnamed_addr constant [148 x i8] c"RSA_set0_crt_params(key, BN_bin2bn(dmp1, sizeof(dmp1) - 1, NULL), BN_bin2bn(dmq1, sizeof(dmq1) - 1, NULL), BN_bin2bn(iqmp, sizeof(iqmp) - 1, NULL))\00", align 1
@dmp1 = internal constant [87 x i8] c"\05|\9E\1C\BD\90%\E7@\86\F5\A8;z?\99V\95`:{\95K\B8\A0\D7\A5\F1\CC\DC_\B5\8C\F4b\95T\ED.\12b\C2\E8\F6\DE\CE\ED\8Ewm\C0@%t\B3Z-\AA\E1\AC\11\CB\E2/\0AQ#\1EG\B2\05\88\02\B2\0FK\F0g0\F0\0Fn\EF_\F7\E7\00", align 16
@dmq1 = internal constant [87 x i8] c"\01\A5k\BC\CD\E3\0EF\C6r\F5\04V(\01\22Xt]\BC\1C<)AIl\81\\r\E2\F7\E5\A3\8EX\16\E0\0E7\AC\1F\BBu\FD\AF\E7\DF\E9\1Fp\A2\8FR\03\C0F\D9\F9\96c\00'~_8`\D6ka\E2\AF\BE\EAX\D3\9D\BCu\03\8DBe\D6k\85\97\00", align 16
@iqmp = internal constant [87 x i8] c"\03\A1\8B\80\E4\D8\87%\17]\CC\8D\A9\8A\22+l\154o\80\CC\1CD\04h\BC\03\CD\95\BBi7aH\B4#\13\08\16Tj\A1|\F5\D4:\E1O\A4\0C\F5\AF\80\85'\06\0Dp\C0\C5\19(\FE\EE\8E\86!\98\8A7\B7\E50%p\93Q-I\85V\B3\0C+\96\00", align 16
@.str.22 = private unnamed_addr constant [5 x i8] c"pris\00", align 1
@.str.23 = private unnamed_addr constant [5 x i8] c"exps\00", align 1
@.str.24 = private unnamed_addr constant [7 x i8] c"coeffs\00", align 1
@ex_prime = internal constant [87 x i8] c"\03\89\22\A0\B7:\91\CB^\0C\FDs\DE\A78\A9GC\D6\02\BF*\B9<H\F3\06\D6X5PV\16\\4\9Ba\87\C8\AA\0A]\8A\0A\CD\9CA\D9\96$\E0\A9\9B&\B7\A8\08\C9\EA\DC\A7\15\FBb\A0-\90\E6\A7Un\C6l\FF\D6\10m\FA.\04P\EC\\f\E4\05\00", align 16
@ex_exponent = internal constant [87 x i8] c"\02\0A\CD\C3\82\D2\03\B01\AC\D3 \804\9AW\BC`\04W%\D0)\9A\16\90\B9\1CIj\D1\F2G\8C\0E\9E\C9 \C2\D8\E4\8F\CE\D2\1A\9C\EC\B4\1F3A\C8\F5b\D1\A5\EF\1D\A1\D8\BDq\C6\F7\DA\897.\E2\ECG\C5\B8\E3\B4\E3\\\82\AA\DD\B7X.\AF\07y\00", align 16
@ex_coefficient = internal constant [87 x i8] c"\00\9C\09\88\9B\C8W\08ii\AB-\9E)\1C<mY3\12\0D+\09.\AF\01,'\01\FC\BD&\13\F9-\09\22NI\11\03\82\88\87\F4C\1D\AC\CA\EC\86\F7#\F1d\F3\F5\81\F076\CFg\FF\1A\FFz\C7\F9\F9g-\A0\9Da\F8\F6G\\/\E7f\E8<:\E8\00", align 16
@.str.25 = private unnamed_addr constant [8 x i8] c"pris[0]\00", align 1
@.str.26 = private unnamed_addr constant [8 x i8] c"exps[0]\00", align 1
@.str.27 = private unnamed_addr constant [10 x i8] c"coeffs[0]\00", align 1
@.str.28 = private unnamed_addr constant [71 x i8] c"RSA_set0_multi_prime_params(key, pris, exps, coeffs, NUM_EXTRA_PRIMES)\00", align 1

; Function Attrs: nounwind uwtable
define internal i32 @key2048p3_v1(ptr noundef %0) #0 {
  %2 = alloca i32, align 4
  %3 = alloca ptr, align 8
  %4 = alloca ptr, align 8
  %5 = alloca ptr, align 8
  %6 = alloca ptr, align 8
  %7 = alloca i32, align 4
  %8 = alloca i32, align 4
  store ptr %0, ptr %3, align 8, !tbaa !8
  call void @llvm.lifetime.start.p0(i64 8, ptr %4) #4
  store ptr null, ptr %4, align 8, !tbaa !14
  call void @llvm.lifetime.start.p0(i64 8, ptr %5) #4
  store ptr null, ptr %5, align 8, !tbaa !14
  call void @llvm.lifetime.start.p0(i64 8, ptr %6) #4
  store ptr null, ptr %6, align 8, !tbaa !14
  call void @llvm.lifetime.start.p0(i64 4, ptr %7) #4
  %9 = load ptr, ptr %3, align 8, !tbaa !8
  %10 = call i32 @RSA_size(ptr noundef %9)
  store i32 %10, ptr %7, align 4, !tbaa !4
  %11 = load ptr, ptr %3, align 8, !tbaa !8
  %12 = call ptr @BN_bin2bn(ptr noundef @p, i32 noundef 86, ptr noundef null)
  %13 = call ptr @BN_bin2bn(ptr noundef @q, i32 noundef 86, ptr noundef null)
  %14 = call i32 @RSA_set0_factors(ptr noundef %11, ptr noundef %12, ptr noundef %13)
  %15 = call i32 @test_int_eq(ptr noundef @.str.2, i32 noundef 158, ptr noundef @.str.19, ptr noundef @.str.20, i32 noundef %14, i32 noundef 1)
  %16 = icmp ne i32 %15, 0
  br i1 %16, label %18, label %17

17:                                               ; preds = %1
  br label %88

18:                                               ; preds = %1
  %19 = load ptr, ptr %3, align 8, !tbaa !8
  %20 = call ptr @BN_bin2bn(ptr noundef @dmp1, i32 noundef 86, ptr noundef null)
  %21 = call ptr @BN_bin2bn(ptr noundef @dmq1, i32 noundef 86, ptr noundef null)
  %22 = call ptr @BN_bin2bn(ptr noundef @iqmp, i32 noundef 86, ptr noundef null)
  %23 = call i32 @RSA_set0_crt_params(ptr noundef %19, ptr noundef %20, ptr noundef %21, ptr noundef %22)
  %24 = call i32 @test_int_eq(ptr noundef @.str.2, i32 noundef 165, ptr noundef @.str.21, ptr noundef @.str.20, i32 noundef %23, i32 noundef 1)
  %25 = icmp ne i32 %24, 0
  br i1 %25, label %27, label %26

26:                                               ; preds = %18
  store i32 0, ptr %2, align 4
  store i32 1, ptr %8, align 4
  br label %110

27:                                               ; preds = %18
  %28 = call noalias ptr @CRYPTO_zalloc(i64 noundef 8, ptr noundef @.str.2, i32 noundef 168)
  store ptr %28, ptr %4, align 8, !tbaa !14
  %29 = call noalias ptr @CRYPTO_zalloc(i64 noundef 8, ptr noundef @.str.2, i32 noundef 169)
  store ptr %29, ptr %5, align 8, !tbaa !14
  %30 = call noalias ptr @CRYPTO_zalloc(i64 noundef 8, ptr noundef @.str.2, i32 noundef 170)
  store ptr %30, ptr %6, align 8, !tbaa !14
  %31 = load ptr, ptr %4, align 8, !tbaa !14
  %32 = call i32 @test_ptr(ptr noundef @.str.2, i32 noundef 171, ptr noundef @.str.22, ptr noundef %31)
  %33 = icmp ne i32 %32, 0
  br i1 %33, label %34, label %42

34:                                               ; preds = %27
  %35 = load ptr, ptr %5, align 8, !tbaa !14
  %36 = call i32 @test_ptr(ptr noundef @.str.2, i32 noundef 171, ptr noundef @.str.23, ptr noundef %35)
  %37 = icmp ne i32 %36, 0
  br i1 %37, label %38, label %42

38:                                               ; preds = %34
  %39 = load ptr, ptr %6, align 8, !tbaa !14
  %40 = call i32 @test_ptr(ptr noundef @.str.2, i32 noundef 171, ptr noundef @.str.24, ptr noundef %39)
  %41 = icmp ne i32 %40, 0
  br i1 %41, label %43, label %42

42:                                               ; preds = %38, %34, %27
  br label %88

43:                                               ; preds = %38
  %44 = call ptr @BN_bin2bn(ptr noundef @ex_prime, i32 noundef 86, ptr noundef null)
  %45 = load ptr, ptr %4, align 8, !tbaa !14
  %46 = getelementptr inbounds ptr, ptr %45, i64 0
  store ptr %44, ptr %46, align 8, !tbaa !11
  %47 = call ptr @BN_bin2bn(ptr noundef @ex_exponent, i32 noundef 86, ptr noundef null)
  %48 = load ptr, ptr %5, align 8, !tbaa !14
  %49 = getelementptr inbounds ptr, ptr %48, i64 0
  store ptr %47, ptr %49, align 8, !tbaa !11
  %50 = call ptr @BN_bin2bn(ptr noundef @ex_coefficient, i32 noundef 86, ptr noundef null)
  %51 = load ptr, ptr %6, align 8, !tbaa !14
  %52 = getelementptr inbounds ptr, ptr %51, i64 0
  store ptr %50, ptr %52, align 8, !tbaa !11
  %53 = load ptr, ptr %4, align 8, !tbaa !14
  %54 = getelementptr inbounds ptr, ptr %53, i64 0
  %55 = load ptr, ptr %54, align 8, !tbaa !11
  %56 = call i32 @test_ptr(ptr noundef @.str.2, i32 noundef 177, ptr noundef @.str.25, ptr noundef %55)
  %57 = icmp ne i32 %56, 0
  br i1 %57, label %58, label %70

58:                                               ; preds = %43
  %59 = load ptr, ptr %5, align 8, !tbaa !14
  %60 = getelementptr inbounds ptr, ptr %59, i64 0
  %61 = load ptr, ptr %60, align 8, !tbaa !11
  %62 = call i32 @test_ptr(ptr noundef @.str.2, i32 noundef 177, ptr noundef @.str.26, ptr noundef %61)
  %63 = icmp ne i32 %62, 0
  br i1 %63, label %64, label %70

64:                                               ; preds = %58
  %65 = load ptr, ptr %6, align 8, !tbaa !14
  %66 = getelementptr inbounds ptr, ptr %65, i64 0
  %67 = load ptr, ptr %66, align 8, !tbaa !11
  %68 = call i32 @test_ptr(ptr noundef @.str.2, i32 noundef 177, ptr noundef @.str.27, ptr noundef %67)
  %69 = icmp ne i32 %68, 0
  br i1 %69, label %71, label %70

70:                                               ; preds = %64, %58, %43
  br label %88

71:                                               ; preds = %64
  %72 = load ptr, ptr %3, align 8, !tbaa !8
  %73 = load ptr, ptr %4, align 8, !tbaa !14
  %74 = load ptr, ptr %5, align 8, !tbaa !14
  %75 = load ptr, ptr %6, align 8, !tbaa !14
  %76 = call i32 @RSA_set0_multi_prime_params(ptr noundef %72, ptr noundef %73, ptr noundef %74, ptr noundef %75, i32 noundef 1)
  %77 = icmp ne i32 %76, 0
  %78 = zext i1 %77 to i32
  %79 = call i32 @test_true(ptr noundef @.str.2, i32 noundef 181, ptr noundef @.str.28, i32 noundef %78)
  %80 = icmp ne i32 %79, 0
  br i1 %80, label %82, label %81

81:                                               ; preds = %71
  br label %88

82:                                               ; preds = %71
  br label %83

83:                                               ; preds = %109, %82
  %84 = load ptr, ptr %4, align 8, !tbaa !14
  call void @CRYPTO_free(ptr noundef %84, ptr noundef @.str.2, i32 noundef 185)
  %85 = load ptr, ptr %5, align 8, !tbaa !14
  call void @CRYPTO_free(ptr noundef %85, ptr noundef @.str.2, i32 noundef 186)
  %86 = load ptr, ptr %6, align 8, !tbaa !14
  call void @CRYPTO_free(ptr noundef %86, ptr noundef @.str.2, i32 noundef 187)
  %87 = load i32, ptr %7, align 4, !tbaa !4
  store i32 %87, ptr %2, align 4
  store i32 1, ptr %8, align 4
  br label %110

88:                                               ; preds = %81, %70, %42, %17
  %89 = load ptr, ptr %4, align 8, !tbaa !14
  %90 = icmp ne ptr %89, null
  br i1 %90, label %91, label %95

91:                                               ; preds = %88
  %92 = load ptr, ptr %4, align 8, !tbaa !14
  %93 = getelementptr inbounds ptr, ptr %92, i64 0
  %94 = load ptr, ptr %93, align 8, !tbaa !11
  call void @BN_free(ptr noundef %94)
  br label %95

95:                                               ; preds = %91, %88
  %96 = load ptr, ptr %5, align 8, !tbaa !14
  %97 = icmp ne ptr %96, null
  br i1 %97, label %98, label %102

98:                                               ; preds = %95
  %99 = load ptr, ptr %5, align 8, !tbaa !14
  %100 = getelementptr inbounds ptr, ptr %99, i64 0
  %101 = load ptr, ptr %100, align 8, !tbaa !11
  call void @BN_free(ptr noundef %101)
  br label %102

102:                                              ; preds = %98, %95
  %103 = load ptr, ptr %6, align 8, !tbaa !14
  %104 = icmp ne ptr %103, null
  br i1 %104, label %105, label %109

105:                                              ; preds = %102
  %106 = load ptr, ptr %6, align 8, !tbaa !14
  %107 = getelementptr inbounds ptr, ptr %106, i64 0
  %108 = load ptr, ptr %107, align 8, !tbaa !11
  call void @BN_free(ptr noundef %108)
  br label %109

109:                                              ; preds = %105, %102
  store i32 0, ptr %7, align 4, !tbaa !4
  br label %83

110:                                              ; preds = %83, %26
  call void @llvm.lifetime.end.p0(i64 4, ptr %7) #4
  call void @llvm.lifetime.end.p0(i64 8, ptr %6) #4
  call void @llvm.lifetime.end.p0(i64 8, ptr %5) #4
  call void @llvm.lifetime.end.p0(i64 8, ptr %4) #4
  %111 = load i32, ptr %2, align 4
  ret i32 %111
}