; Function Attrs: nounwind uwtable
define internal i32 @key2048p3_v1(ptr noundef %0) #0 {
  %2 = tail call i32 @RSA_size(ptr noundef %0) #3
  %3 = tail call ptr @BN_bin2bn(ptr noundef nonnull @p, i32 noundef 86, ptr noundef null) #3
  %4 = tail call ptr @BN_bin2bn(ptr noundef nonnull @q, i32 noundef 86, ptr noundef null) #3
  %5 = tail call i32 @RSA_set0_factors(ptr noundef %0, ptr noundef %3, ptr noundef %4) #3
  %6 = tail call i32 @test_int_eq(ptr noundef nonnull @.str.2, i32 noundef 158, ptr noundef nonnull @.str.19, ptr noundef nonnull @.str.20, i32 noundef %5, i32 noundef 1) #3
  %.not = icmp eq i32 %6, 0
  br i1 %.not, label %.thread66, label %7

7:                                                ; preds = %1
  %8 = tail call ptr @BN_bin2bn(ptr noundef nonnull @dmp1, i32 noundef 86, ptr noundef null) #3
  %9 = tail call ptr @BN_bin2bn(ptr noundef nonnull @dmq1, i32 noundef 86, ptr noundef null) #3
  %10 = tail call ptr @BN_bin2bn(ptr noundef nonnull @iqmp, i32 noundef 86, ptr noundef null) #3
  %11 = tail call i32 @RSA_set0_crt_params(ptr noundef %0, ptr noundef %8, ptr noundef %9, ptr noundef %10) #3
  %12 = tail call i32 @test_int_eq(ptr noundef nonnull @.str.2, i32 noundef 165, ptr noundef nonnull @.str.21, ptr noundef nonnull @.str.20, i32 noundef %11, i32 noundef 1) #3
  %.not32 = icmp eq i32 %12, 0
  br i1 %.not32, label %47, label %13

13:                                               ; preds = %7
  %14 = tail call noalias ptr @CRYPTO_zalloc(i64 noundef 8, ptr noundef nonnull @.str.2, i32 noundef 168) #3
  %15 = tail call noalias ptr @CRYPTO_zalloc(i64 noundef 8, ptr noundef nonnull @.str.2, i32 noundef 169) #3
  %16 = tail call noalias ptr @CRYPTO_zalloc(i64 noundef 8, ptr noundef nonnull @.str.2, i32 noundef 170) #3
  %17 = tail call i32 @test_ptr(ptr noundef nonnull @.str.2, i32 noundef 171, ptr noundef nonnull @.str.22, ptr noundef %14) #3
  %.not33 = icmp eq i32 %17, 0
  br i1 %.not33, label %39, label %18

18:                                               ; preds = %13
  %19 = tail call i32 @test_ptr(ptr noundef nonnull @.str.2, i32 noundef 171, ptr noundef nonnull @.str.23, ptr noundef %15) #3
  %.not34 = icmp eq i32 %19, 0
  br i1 %.not34, label %39, label %20

20:                                               ; preds = %18
  %21 = tail call i32 @test_ptr(ptr noundef nonnull @.str.2, i32 noundef 171, ptr noundef nonnull @.str.24, ptr noundef %16) #3
  %.not35 = icmp eq i32 %21, 0
  br i1 %.not35, label %39, label %22

22:                                               ; preds = %20
  %23 = tail call ptr @BN_bin2bn(ptr noundef nonnull @ex_prime, i32 noundef 86, ptr noundef null) #3
  store ptr %23, ptr %14, align 8, !tbaa !8
  %24 = tail call ptr @BN_bin2bn(ptr noundef nonnull @ex_exponent, i32 noundef 86, ptr noundef null) #3
  store ptr %24, ptr %15, align 8, !tbaa !8
  %25 = tail call ptr @BN_bin2bn(ptr noundef nonnull @ex_coefficient, i32 noundef 86, ptr noundef null) #3
  store ptr %25, ptr %16, align 8, !tbaa !8
  %26 = load ptr, ptr %14, align 8, !tbaa !8
  %27 = tail call i32 @test_ptr(ptr noundef nonnull @.str.2, i32 noundef 177, ptr noundef nonnull @.str.25, ptr noundef %26) #3
  %.not36 = icmp eq i32 %27, 0
  br i1 %.not36, label %.thread, label %28

28:                                               ; preds = %22
  %29 = load ptr, ptr %15, align 8, !tbaa !8
  %30 = tail call i32 @test_ptr(ptr noundef nonnull @.str.2, i32 noundef 177, ptr noundef nonnull @.str.26, ptr noundef %29) #3
  %.not37 = icmp eq i32 %30, 0
  br i1 %.not37, label %.thread, label %31

31:                                               ; preds = %28
  %32 = load ptr, ptr %16, align 8, !tbaa !8
  %33 = tail call i32 @test_ptr(ptr noundef nonnull @.str.2, i32 noundef 177, ptr noundef nonnull @.str.27, ptr noundef %32) #3
  %.not38 = icmp eq i32 %33, 0
  br i1 %.not38, label %.thread, label %34

34:                                               ; preds = %31
  %35 = tail call i32 @RSA_set0_multi_prime_params(ptr noundef %0, ptr noundef nonnull %14, ptr noundef nonnull %15, ptr noundef nonnull %16, i32 noundef 1) #3
  %36 = icmp ne i32 %35, 0
  %37 = zext i1 %36 to i32
  %38 = tail call i32 @test_true(ptr noundef nonnull @.str.2, i32 noundef 181, ptr noundef nonnull @.str.28, i32 noundef %37) #3
  %.not39 = icmp eq i32 %38, 0
  br i1 %.not39, label %.thread, label %.thread66

.thread66:                                        ; preds = %1, %44, %45, %34
  %.130 = phi ptr [ %14, %34 ], [ %.02948, %45 ], [ %.02948, %44 ], [ null, %1 ]
  %.128 = phi ptr [ %15, %34 ], [ %15, %45 ], [ %15, %44 ], [ null, %1 ]
  %.1 = phi ptr [ %16, %34 ], [ %16, %45 ], [ null, %44 ], [ null, %1 ]
  %.0 = phi i32 [ %2, %34 ], [ 0, %45 ], [ 0, %44 ], [ 0, %1 ]
  tail call void @CRYPTO_free(ptr noundef %.130, ptr noundef nonnull @.str.2, i32 noundef 185) #3
  tail call void @CRYPTO_free(ptr noundef %.128, ptr noundef nonnull @.str.2, i32 noundef 186) #3
  tail call void @CRYPTO_free(ptr noundef %.1, ptr noundef nonnull @.str.2, i32 noundef 187) #3
  br label %47

39:                                               ; preds = %13, %18, %20
  %.not40 = icmp eq ptr %14, null
  br i1 %.not40, label %41, label %.thread

.thread:                                          ; preds = %22, %28, %31, %34, %39
  %40 = load ptr, ptr %14, align 8, !tbaa !8
  tail call void @BN_free(ptr noundef %40) #3
  br label %41

41:                                               ; preds = %.thread, %39
  %.02948 = phi ptr [ %14, %.thread ], [ null, %39 ]
  %.not41 = icmp eq ptr %15, null
  br i1 %.not41, label %44, label %42

42:                                               ; preds = %41
  %43 = load ptr, ptr %15, align 8, !tbaa !8
  tail call void @BN_free(ptr noundef %43) #3
  br label %44

44:                                               ; preds = %42, %41
  %.not42 = icmp eq ptr %16, null
  br i1 %.not42, label %.thread66, label %45

45:                                               ; preds = %44
  %46 = load ptr, ptr %16, align 8, !tbaa !8
  tail call void @BN_free(ptr noundef %46) #3
  br label %.thread66

47:                                               ; preds = %7, %.thread66
  %.031 = phi i32 [ %.0, %.thread66 ], [ 0, %7 ]
  ret i32 %.031
}